target datalayout = "e-m:e-p270:32:32-p271:32:32-p272:64:64-i64:64-i128:128-f80:128-n8:16:32:64-S128"
target triple = "x86_64-pc-linux-gnu"

%struct.yyjson_read_err = type { i32, ptr, i64 }

@.str.34 = private unnamed_addr constant [19 x i8] c"input path is NULL\00", align 1
@.str.35 = private unnamed_addr constant [20 x i8] c"file opening failed\00", align 1
@.str.84 = private unnamed_addr constant [4 x i8] c"rbe\00", align 1

; Function Attrs: alwaysinline nounwind uwtable
define internal ptr @fopen_safe(ptr noundef %0, ptr noundef %1) #4 {
  %3 = alloca ptr, align 8
  %4 = alloca ptr, align 8
  store ptr %0, ptr %3, align 8, !tbaa !92
  store ptr %1, ptr %4, align 8, !tbaa !92
  %5 = load ptr, ptr %3, align 8, !tbaa !92
  %6 = load ptr, ptr %4, align 8, !tbaa !92
  %7 = call noalias ptr @fopen(ptr noundef %5, ptr noundef %6)
  ret ptr %7
}

; Function Attrs: alwaysinline nounwind uwtable
define internal ptr @fopen_readonly(ptr noundef %0) #4 {
  %2 = alloca ptr, align 8
  store ptr %0, ptr %2, align 8, !tbaa !92
  %3 = load ptr, ptr %2, align 8, !tbaa !92
  %4 = call ptr @fopen_safe(ptr noundef %3, ptr noundef @.str.84)
  ret ptr %4
}

; Function Attrs: nounwind uwtable
define dso_local ptr @yyjson_read_file(ptr noundef %0, i32 noundef %1, ptr noundef %2, ptr noundef %3) #0 {
  %5 = alloca ptr, align 8
  %6 = alloca ptr, align 8
  %7 = alloca i32, align 4
  %8 = alloca ptr, align 8
  %9 = alloca ptr, align 8
  %10 = alloca %struct.yyjson_read_err, align 8
  %11 = alloca ptr, align 8
  %12 = alloca ptr, align 8
  %13 = alloca i32, align 4
  store ptr %0, ptr %6, align 8, !tbaa !92
  store i32 %1, ptr %7, align 4, !tbaa !174
  store ptr %2, ptr %8, align 8, !tbaa !4
  store ptr %3, ptr %9, align 8, !tbaa !195
  call void @llvm.lifetime.start.p0(i64 24, ptr %10) #13
  call void @llvm.lifetime.start.p0(i64 8, ptr %11) #13
  call void @llvm.lifetime.start.p0(i64 8, ptr %12) #13
  %14 = load ptr, ptr %9, align 8, !tbaa !195
  %15 = icmp ne ptr %14, null
  br i1 %15, label %17, label %16

16:                                               ; preds = %4
  store ptr %10, ptr %9, align 8, !tbaa !195
  br label %17

17:                                               ; preds = %16, %4
  %18 = load ptr, ptr %6, align 8, !tbaa !92
  %19 = icmp ne ptr %18, null
  %20 = xor i1 %19, true
  %21 = xor i1 %20, true
  %22 = xor i1 %21, true
  %23 = zext i1 %22 to i32
  %24 = sext i32 %23 to i64
  %25 = call i64 @llvm.expect.i64(i64 %24, i64 0)
  %26 = icmp ne i64 %25, 0
  br i1 %26, label %27, label %37

27:                                               ; preds = %17
  br label %28

28:                                               ; preds = %27
  %29 = load ptr, ptr %9, align 8, !tbaa !195
  %30 = getelementptr inbounds nuw %struct.yyjson_read_err, ptr %29, i32 0, i32 2
  store i64 0, ptr %30, align 8, !tbaa !197
  %31 = load ptr, ptr %9, align 8, !tbaa !195
  %32 = getelementptr inbounds nuw %struct.yyjson_read_err, ptr %31, i32 0, i32 1
  store ptr @.str.34, ptr %32, align 8, !tbaa !199
  %33 = load ptr, ptr %9, align 8, !tbaa !195
  %34 = getelementptr inbounds nuw %struct.yyjson_read_err, ptr %33, i32 0, i32 0
  store i32 1, ptr %34, align 8, !tbaa !200
  store ptr null, ptr %5, align 8
  store i32 1, ptr %13, align 4
  br label %68

35:                                               ; No predecessors!
  br label %36

36:                                               ; preds = %35
  br label %37

37:                                               ; preds = %36, %17
  %38 = load ptr, ptr %6, align 8, !tbaa !92
  %39 = call ptr @fopen_readonly(ptr noundef %38)
  store ptr %39, ptr %12, align 8, !tbaa !223
  %40 = load ptr, ptr %12, align 8, !tbaa !223
  %41 = icmp ne ptr %40, null
  %42 = xor i1 %41, true
  %43 = xor i1 %42, true
  %44 = xor i1 %43, true
  %45 = zext i1 %44 to i32
  %46 = sext i32 %45 to i64
  %47 = call i64 @llvm.expect.i64(i64 %46, i64 0)
  %48 = icmp ne i64 %47, 0
  br i1 %48, label %49, label %59

49:                                               ; preds = %37
  br label %50

50:                                               ; preds = %49
  %51 = load ptr, ptr %9, align 8, !tbaa !195
  %52 = getelementptr inbounds nuw %struct.yyjson_read_err, ptr %51, i32 0, i32 2
  store i64 0, ptr %52, align 8, !tbaa !197
  %53 = load ptr, ptr %9, align 8, !tbaa !195
  %54 = getelementptr inbounds nuw %struct.yyjson_read_err, ptr %53, i32 0, i32 1
  store ptr @.str.35, ptr %54, align 8, !tbaa !199
  %55 = load ptr, ptr %9, align 8, !tbaa !195
  %56 = getelementptr inbounds nuw %struct.yyjson_read_err, ptr %55, i32 0, i32 0
  store i32 12, ptr %56, align 8, !tbaa !200
  store ptr null, ptr %5, align 8
  store i32 1, ptr %13, align 4
  br label %68

57:                                               ; No predecessors!
  br label %58

58:                                               ; preds = %57
  br label %59

59:                                               ; preds = %58, %37
  %60 = load ptr, ptr %12, align 8, !tbaa !223
  %61 = load i32, ptr %7, align 4, !tbaa !174
  %62 = load ptr, ptr %8, align 8, !tbaa !4
  %63 = load ptr, ptr %9, align 8, !tbaa !195
  %64 = call ptr @yyjson_read_fp(ptr noundef %60, i32 noundef %61, ptr noundef %62, ptr noundef %63)
  store ptr %64, ptr %11, align 8, !tbaa !80
  %65 = load ptr, ptr %12, align 8, !tbaa !223
  %66 = call i32 @fclose(ptr noundef %65)
  %67 = load ptr, ptr %11, align 8, !tbaa !80
  store ptr %67, ptr %5, align 8
  store i32 1, ptr %13, align 4
  br label %68

68:                                               ; preds = %59, %50, %28
  call void @llvm.lifetime.end.p0(i64 8, ptr %12) #13
  call void @llvm.lifetime.end.p0(i64 8, ptr %11) #13
  call void @llvm.lifetime.end.p0(i64 24, ptr %10) #13
  %69 = load ptr, ptr %5, align 8
  ret ptr %69
}